target datalayout = "e-m:e-p270:32:32-p271:32:32-p272:64:64-i64:64-i128:128-f80:128-n8:16:32:64-S128"
target triple = "x86_64-unknown-linux-gnu"

%"struct.std::atomic" = type { %"struct.std::__atomic_base" }
%"struct.std::__atomic_base" = type { i64 }
%"struct.std::atomic.94" = type { %"struct.std::__atomic_base.95" }
%"struct.std::__atomic_base.95" = type { i8 }
%"class.tbb::detail::d1::wait_context" = type { i64, %"struct.std::atomic" }
%"class.tbb::detail::d1::vector_iterator.611" = type { ptr, i64, ptr }
%"class.tbb::detail::d1::small_object_allocator" = type { ptr }
%"struct.tbb::detail::d1::wait_node" = type { %"struct.tbb::detail::d1::node.base", %"class.tbb::detail::d1::wait_context" }
%"struct.tbb::detail::d1::node.base" = type <{ ptr, %"struct.std::atomic.434" }>
%"struct.std::atomic.434" = type { %"struct.std::__atomic_base.435" }
%"struct.std::__atomic_base.435" = type { i32 }
%"class.tbb::detail::d1::task" = type { ptr, %"class.tbb::detail::d1::task_traits", [6 x i64] }
%"class.tbb::detail::d1::task_traits" = type { i64 }
%"class.tbb::detail::d1::auto_partition_type" = type { %"struct.tbb::detail::d1::dynamic_grainsize_mode.base", [3 x i8] }
%"struct.tbb::detail::d1::dynamic_grainsize_mode.base" = type <{ %"struct.tbb::detail::d1::adaptive_mode", i32, i8 }>
%"struct.tbb::detail::d1::adaptive_mode" = type { i64 }
%"struct.tbb::detail::d1::node" = type <{ ptr, %"struct.std::atomic.434", [4 x i8] }>
%"struct.tbb::detail::d1::execution_data" = type <{ ptr, i16, i16, [4 x i8] }>
%"struct.tbb::detail::d1::tree_node" = type <{ %"struct.tbb::detail::d1::node.base", [4 x i8], %"class.tbb::detail::d1::small_object_allocator", %"struct.std::atomic.94", [7 x i8] }>
%"class.tbb::detail::d1::quick_sort_range.655" = type { ptr, i64, %"class.tbb::detail::d1::vector_iterator.611" }
%"struct.tbb::detail::d1::quick_sort_body.656" = type { i8 }
%"struct.tbb::detail::d1::start_for.657" = type { %"class.tbb::detail::d1::task", %"class.tbb::detail::d1::quick_sort_range.655", %"struct.tbb::detail::d1::quick_sort_body.656", ptr, %"class.tbb::detail::d1::auto_partition_type", %"class.tbb::detail::d1::small_object_allocator", [48 x i8] }

; Function Attrs: mustprogress nounwind
define linkonce_odr dso_local void @_ZN3tbb6detail2d112wait_context13add_referenceEl(ptr noundef nonnull align 8 dereferenceable(16) %this, i64 noundef %delta) #4 comdat align 2 {
entry:
  %this.addr.i = alloca ptr, align 8
  %__i.addr.i = alloca i64, align 8
  %__m.addr.i = alloca i32, align 4
  %.atomictmp.i = alloca i64, align 8
  %atomic-temp.i = alloca i64, align 8
  %this.addr = alloca ptr, align 8
  %delta.addr = alloca i64, align 8
  %r = alloca i64, align 8
  %wait_ctx_addr = alloca i64, align 8
  store ptr %this, ptr %this.addr, align 8
  store i64 %delta, ptr %delta.addr, align 8
  %this1 = load ptr, ptr %this.addr, align 8
  call void @_ZN3tbb6detail2d120call_itt_task_notifyENS1_11notify_typeEPv(i32 noundef 3, ptr noundef %this1)
  %m_ref_count = getelementptr inbounds %"class.tbb::detail::d1::wait_context", ptr %this1, i32 0, i32 1
  %0 = load i64, ptr %delta.addr, align 8
  store ptr %m_ref_count, ptr %this.addr.i, align 8
  store i64 %0, ptr %__i.addr.i, align 8
  store i32 5, ptr %__m.addr.i, align 4
  %this1.i = load ptr, ptr %this.addr.i, align 8
  %1 = load i32, ptr %__m.addr.i, align 4
  %2 = load i64, ptr %__i.addr.i, align 8
  store i64 %2, ptr %.atomictmp.i, align 8
  switch i32 %1, label %monotonic.i [
    i32 1, label %acquire.i
    i32 2, label %acquire.i
    i32 3, label %release.i
    i32 4, label %acqrel.i
    i32 5, label %seqcst.i
  ]

monotonic.i:                                      ; preds = %entry
  %3 = load i64, ptr %.atomictmp.i, align 8
  %4 = atomicrmw add ptr %this1.i, i64 %3 monotonic, align 8
  store i64 %4, ptr %atomic-temp.i, align 8
  br label %_ZNSt13__atomic_baseImE9fetch_addEmSt12memory_order.exit

acquire.i:                                        ; preds = %entry, %entry
  %5 = load i64, ptr %.atomictmp.i, align 8
  %6 = atomicrmw add ptr %this1.i, i64 %5 acquire, align 8
  store i64 %6, ptr %atomic-temp.i, align 8
  br label %_ZNSt13__atomic_baseImE9fetch_addEmSt12memory_order.exit

release.i:                                        ; preds = %entry
  %7 = load i64, ptr %.atomictmp.i, align 8
  %8 = atomicrmw add ptr %this1.i, i64 %7 release, align 8
  store i64 %8, ptr %atomic-temp.i, align 8
  br label %_ZNSt13__atomic_baseImE9fetch_addEmSt12memory_order.exit

acqrel.i:                                         ; preds = %entry
  %9 = load i64, ptr %.atomictmp.i, align 8
  %10 = atomicrmw add ptr %this1.i, i64 %9 acq_rel, align 8
  store i64 %10, ptr %atomic-temp.i, align 8
  br label %_ZNSt13__atomic_baseImE9fetch_addEmSt12memory_order.exit

seqcst.i:                                         ; preds = %entry
  %11 = load i64, ptr %.atomictmp.i, align 8
  %12 = atomicrmw add ptr %this1.i, i64 %11 seq_cst, align 8
  store i64 %12, ptr %atomic-temp.i, align 8
  br label %_ZNSt13__atomic_baseImE9fetch_addEmSt12memory_order.exit

_ZNSt13__atomic_baseImE9fetch_addEmSt12memory_order.exit: ; preds = %seqcst.i, %acqrel.i, %release.i, %acquire.i, %monotonic.i
  %13 = load i64, ptr %atomic-temp.i, align 8
  %14 = load i64, ptr %delta.addr, align 8
  %add = add i64 %13, %14
  store i64 %add, ptr %r, align 8
  %15 = load i64, ptr %r, align 8
  %tobool = icmp ne i64 %15, 0
  br i1 %tobool, label %if.end, label %if.then

if.then:                                          ; preds = %_ZNSt13__atomic_baseImE9fetch_addEmSt12memory_order.exit
  %16 = ptrtoint ptr %this1 to i64
  store i64 %16, ptr %wait_ctx_addr, align 8
  %17 = load i64, ptr %wait_ctx_addr, align 8
  call void @_ZN3tbb6detail2r114notify_waitersEm(i64 noundef %17)
  br label %if.end

if.end:                                           ; preds = %if.then, %_ZNSt13__atomic_baseImE9fetch_addEmSt12memory_order.exit
  ret void
}

; Function Attrs: mustprogress nounwind
define linkonce_odr dso_local void @_ZN3tbb6detail2d122small_object_allocator10deallocateINS1_9tree_nodeEEEvPT_RKNS1_14execution_dataE(ptr noundef nonnull align 8 dereferenceable(8) %this, ptr noundef %ptr, ptr noundef nonnull align 8 dereferenceable(12) %ed) #4 comdat align 2 {
entry:
  %this.addr = alloca ptr, align 8
  %ptr.addr = alloca ptr, align 8
  %ed.addr = alloca ptr, align 8
  store ptr %this, ptr %this.addr, align 8
  store ptr %ptr, ptr %ptr.addr, align 8
  store ptr %ed, ptr %ed.addr, align 8
  %this1 = load ptr, ptr %this.addr, align 8
  %0 = load ptr, ptr %ptr.addr, align 8
  call void @_ZN3tbb6detail2d120call_itt_task_notifyENS1_11notify_typeEPv(i32 noundef 4, ptr noundef %0)
  %m_pool = getelementptr inbounds %"class.tbb::detail::d1::small_object_allocator", ptr %this1, i32 0, i32 0
  %1 = load ptr, ptr %m_pool, align 8
  %2 = load ptr, ptr %ptr.addr, align 8
  %3 = load ptr, ptr %ed.addr, align 8
  call void @_ZN3tbb6detail2r110deallocateERNS0_2d117small_object_poolEPvmRKNS2_14execution_dataE(ptr noundef nonnull align 1 dereferenceable(1) %1, ptr noundef %2, i64 noundef 32, ptr noundef nonnull align 8 dereferenceable(12) %3)
  ret void
}

; Function Attrs: mustprogress nounwind
define linkonce_odr dso_local void @_ZN3tbb6detail2d112wait_context7releaseEj(ptr noundef nonnull align 8 dereferenceable(16) %this, i32 noundef %delta) #4 comdat align 2 {
entry:
  %this.addr = alloca ptr, align 8
  %delta.addr = alloca i32, align 4
  store ptr %this, ptr %this.addr, align 8
  store i32 %delta, ptr %delta.addr, align 4
  %this1 = load ptr, ptr %this.addr, align 8
  %0 = load i32, ptr %delta.addr, align 4
  %conv = zext i32 %0 to i64
  %sub = sub nsw i64 0, %conv
  call void @_ZN3tbb6detail2d112wait_context13add_referenceEl(ptr noundef nonnull align 8 dereferenceable(16) %this1, i64 noundef %sub)
  ret void
}

; Function Attrs: mustprogress nounwind
define linkonce_odr dso_local void @_ZN3tbb6detail2d122small_object_allocator13delete_objectINS1_9tree_nodeEEEvPT_RKNS1_14execution_dataE(ptr noundef nonnull align 8 dereferenceable(8) %this, ptr noundef %object, ptr noundef nonnull align 8 dereferenceable(12) %ed) #4 comdat align 2 {
entry:
  %this.addr = alloca ptr, align 8
  %object.addr = alloca ptr, align 8
  %ed.addr = alloca ptr, align 8
  %alloc = alloca %"class.tbb::detail::d1::small_object_allocator", align 8
  store ptr %this, ptr %this.addr, align 8
  store ptr %object, ptr %object.addr, align 8
  store ptr %ed, ptr %ed.addr, align 8
  %this1 = load ptr, ptr %this.addr, align 8
  call void @llvm.memcpy.p0.p0.i64(ptr align 8 %alloc, ptr align 8 %this1, i64 8, i1 false)
  %0 = load ptr, ptr %object.addr, align 8
  %1 = load ptr, ptr %ed.addr, align 8
  call void @_ZN3tbb6detail2d122small_object_allocator10deallocateINS1_9tree_nodeEEEvPT_RKNS1_14execution_dataE(ptr noundef nonnull align 8 dereferenceable(8) %alloc, ptr noundef %0, ptr noundef nonnull align 8 dereferenceable(12) %1)
  ret void
}

; Function Attrs: mustprogress nounwind
define linkonce_odr dso_local void @_ZN3tbb6detail2d19tree_node4joinEPNS1_18task_group_contextE(ptr noundef nonnull align 8 dereferenceable(25) %this, ptr noundef %0) #4 comdat align 2 {
entry:
  %this.addr = alloca ptr, align 8
  %.addr = alloca ptr, align 8
  store ptr %this, ptr %this.addr, align 8
  store ptr %0, ptr %.addr, align 8
  ret void
}

; Function Attrs: mustprogress nounwind
define linkonce_odr dso_local noundef i32 @_ZNSt13__atomic_baseIiEmmEv(ptr noundef nonnull align 4 dereferenceable(4) %this) #4 comdat align 2 {
entry:
  %this.addr = alloca ptr, align 8
  %.atomictmp = alloca i32, align 4
  %atomic-temp = alloca i32, align 4
  store ptr %this, ptr %this.addr, align 8
  %this1 = load ptr, ptr %this.addr, align 8
  %_M_i = getelementptr inbounds %"struct.std::__atomic_base.435", ptr %this1, i32 0, i32 0
  store i32 1, ptr %.atomictmp, align 4
  %0 = load i32, ptr %.atomictmp, align 4
  %1 = atomicrmw sub ptr %_M_i, i32 %0 seq_cst, align 4
  %2 = sub i32 %1, %0
  store i32 %2, ptr %atomic-temp, align 4
  %3 = load i32, ptr %atomic-temp, align 4
  ret i32 %3
}

; Function Attrs: mustprogress nounwind
define linkonce_odr dso_local void @_ZN3tbb6detail2d120call_itt_task_notifyENS1_11notify_typeEPv(i32 noundef %0, ptr noundef %1) #4 comdat {
entry:
  %.addr = alloca i32, align 4
  %.addr1 = alloca ptr, align 8
  store i32 %0, ptr %.addr, align 4
  store ptr %1, ptr %.addr1, align 8
  ret void
}

; Function Attrs: mustprogress nounwind
define internal void @_ZN3tbb6detail2d122small_object_allocator10deallocateINS1_9start_forINS1_16quick_sort_rangeINS1_15vector_iteratorINS1_17concurrent_vectorIPN4mold3elf12InputSectionINS9_5ALPHAEEENS1_23cache_aligned_allocatorISD_EEEESD_EEZNS9_L18print_icf_sectionsISB_EEvRNS9_7ContextIT_EEEUlSD_SD_E_EENS1_15quick_sort_bodyISH_SN_EEKNS1_16auto_partitionerEEEEEvPSK_RKNS1_14execution_dataE(ptr noundef nonnull align 8 dereferenceable(8) %this, ptr noundef %ptr, ptr noundef nonnull align 8 dereferenceable(12) %ed) #4 align 2 {
entry:
  %this.addr = alloca ptr, align 8
  %ptr.addr = alloca ptr, align 8
  %ed.addr = alloca ptr, align 8
  store ptr %this, ptr %this.addr, align 8
  store ptr %ptr, ptr %ptr.addr, align 8
  store ptr %ed, ptr %ed.addr, align 8
  %this1 = load ptr, ptr %this.addr, align 8
  %0 = load ptr, ptr %ptr.addr, align 8
  call void @_ZN3tbb6detail2d120call_itt_task_notifyENS1_11notify_typeEPv(i32 noundef 4, ptr noundef %0)
  %m_pool = getelementptr inbounds %"class.tbb::detail::d1::small_object_allocator", ptr %this1, i32 0, i32 0
  %1 = load ptr, ptr %m_pool, align 8
  %2 = load ptr, ptr %ptr.addr, align 8
  %3 = load ptr, ptr %ed.addr, align 8
  call void @_ZN3tbb6detail2r110deallocateERNS0_2d117small_object_poolEPvmRKNS2_14execution_dataE(ptr noundef nonnull align 1 dereferenceable(1) %1, ptr noundef %2, i64 noundef 192, ptr noundef nonnull align 8 dereferenceable(12) %3)
  ret void
}

; Function Attrs: mustprogress nounwind
define linkonce_odr dso_local void @_ZN3tbb6detail2d19fold_treeINS1_9tree_nodeEEEvPNS1_4nodeERKNS1_14execution_dataE(ptr noundef %n, ptr noundef nonnull align 8 dereferenceable(12) %ed) #4 comdat {
entry:
  %n.addr = alloca ptr, align 8
  %ed.addr = alloca ptr, align 8
  %parent = alloca ptr, align 8
  %self = alloca ptr, align 8
  store ptr %n, ptr %n.addr, align 8
  store ptr %ed, ptr %ed.addr, align 8
  br label %for.cond

for.cond:                                         ; preds = %if.end2, %entry
  %0 = load ptr, ptr %n.addr, align 8
  call void @_ZN3tbb6detail2d120call_itt_task_notifyENS1_11notify_typeEPv(i32 noundef 3, ptr noundef %0)
  %1 = load ptr, ptr %n.addr, align 8
  %m_ref_count = getelementptr inbounds %"struct.tbb::detail::d1::node", ptr %1, i32 0, i32 1
  %call = call noundef i32 @_ZNSt13__atomic_baseIiEmmEv(ptr noundef nonnull align 4 dereferenceable(4) %m_ref_count) #3
  %cmp = icmp sgt i32 %call, 0
  br i1 %cmp, label %if.then, label %if.end

if.then:                                          ; preds = %for.cond
  br label %return

if.end:                                           ; preds = %for.cond
  %2 = load ptr, ptr %n.addr, align 8
  %my_parent = getelementptr inbounds %"struct.tbb::detail::d1::node", ptr %2, i32 0, i32 0
  %3 = load ptr, ptr %my_parent, align 8
  store ptr %3, ptr %parent, align 8
  %4 = load ptr, ptr %parent, align 8
  %tobool = icmp ne ptr %4, null
  br i1 %tobool, label %if.end2, label %if.then1

if.then1:                                         ; preds = %if.end
  br label %for.end

if.end2:                                          ; preds = %if.end
  %5 = load ptr, ptr %n.addr, align 8
  call void @_ZN3tbb6detail2d120call_itt_task_notifyENS1_11notify_typeEPv(i32 noundef 2, ptr noundef %5)
  %6 = load ptr, ptr %n.addr, align 8
  store ptr %6, ptr %self, align 8
  %7 = load ptr, ptr %self, align 8
  %8 = load ptr, ptr %ed.addr, align 8
  %context = getelementptr inbounds %"struct.tbb::detail::d1::execution_data", ptr %8, i32 0, i32 0
  %9 = load ptr, ptr %context, align 8
  call void @_ZN3tbb6detail2d19tree_node4joinEPNS1_18task_group_contextE(ptr noundef nonnull align 8 dereferenceable(25) %7, ptr noundef %9)
  %10 = load ptr, ptr %self, align 8
  %m_allocator = getelementptr inbounds %"struct.tbb::detail::d1::tree_node", ptr %10, i32 0, i32 2
  %11 = load ptr, ptr %self, align 8
  %12 = load ptr, ptr %ed.addr, align 8
  call void @_ZN3tbb6detail2d122small_object_allocator13delete_objectINS1_9tree_nodeEEEvPT_RKNS1_14execution_dataE(ptr noundef nonnull align 8 dereferenceable(8) %m_allocator, ptr noundef %11, ptr noundef nonnull align 8 dereferenceable(12) %12)
  %13 = load ptr, ptr %parent, align 8
  store ptr %13, ptr %n.addr, align 8
  br label %for.cond, !llvm.loop !80

for.end:                                          ; preds = %if.then1
  %14 = load ptr, ptr %n.addr, align 8
  %m_wait = getelementptr inbounds %"struct.tbb::detail::d1::wait_node", ptr %14, i32 0, i32 1
  call void @_ZN3tbb6detail2d112wait_context7releaseEj(ptr noundef nonnull align 8 dereferenceable(16) %m_wait, i32 noundef 1)
  br label %return

return:                                           ; preds = %for.end, %if.then
  ret void
}

; Function Attrs: mustprogress nounwind
define internal void @_ZN3tbb6detail2d19start_forINS1_16quick_sort_rangeINS1_15vector_iteratorINS1_17concurrent_vectorIPN4mold3elf12InputSectionINS7_5ALPHAEEENS1_23cache_aligned_allocatorISB_EEEESB_EEZNS7_L18print_icf_sectionsIS9_EEvRNS7_7ContextIT_EEEUlSB_SB_E_EENS1_15quick_sort_bodyISF_SL_EEKNS1_16auto_partitionerEE8finalizeERKNS1_14execution_dataE(ptr noundef nonnull align 64 dereferenceable(144) %this, ptr noundef nonnull align 8 dereferenceable(12) %ed) #4 align 2 {
entry:
  %this.addr = alloca ptr, align 8
  %ed.addr = alloca ptr, align 8
  %parent = alloca ptr, align 8
  %allocator = alloca %"class.tbb::detail::d1::small_object_allocator", align 8
  store ptr %this, ptr %this.addr, align 8
  store ptr %ed, ptr %ed.addr, align 8
  %this1 = load ptr, ptr %this.addr, align 8
  %my_parent = getelementptr inbounds %"struct.tbb::detail::d1::start_for.657", ptr %this1, i32 0, i32 3
  %0 = load ptr, ptr %my_parent, align 16
  store ptr %0, ptr %parent, align 8
  %my_allocator = getelementptr inbounds %"struct.tbb::detail::d1::start_for.657", ptr %this1, i32 0, i32 5
  call void @llvm.memcpy.p0.p0.i64(ptr align 8 %allocator, ptr align 8 %my_allocator, i64 8, i1 false)
  %vtable = load ptr, ptr %this1, align 64
  %vfn = getelementptr inbounds ptr, ptr %vtable, i64 0
  %1 = load ptr, ptr %vfn, align 8
  call void %1(ptr noundef nonnull align 64 dereferenceable(144) %this1) #3
  %2 = load ptr, ptr %parent, align 8
  %3 = load ptr, ptr %ed.addr, align 8
  call void @_ZN3tbb6detail2d19fold_treeINS1_9tree_nodeEEEvPNS1_4nodeERKNS1_14execution_dataE(ptr noundef %2, ptr noundef nonnull align 8 dereferenceable(12) %3)
  %4 = load ptr, ptr %ed.addr, align 8
  call void @_ZN3tbb6detail2d122small_object_allocator10deallocateINS1_9start_forINS1_16quick_sort_rangeINS1_15vector_iteratorINS1_17concurrent_vectorIPN4mold3elf12InputSectionINS9_5ALPHAEEENS1_23cache_aligned_allocatorISD_EEEESD_EEZNS9_L18print_icf_sectionsISB_EEvRNS9_7ContextIT_EEEUlSD_SD_E_EENS1_15quick_sort_bodyISH_SN_EEKNS1_16auto_partitionerEEEEEvPSK_RKNS1_14execution_dataE(ptr noundef nonnull align 8 dereferenceable(8) %allocator, ptr noundef %this1, ptr noundef nonnull align 8 dereferenceable(12) %4)
  ret void
}

; Function Attrs: mustprogress nounwind
define internal noundef ptr @_ZN3tbb6detail2d19start_forINS1_16quick_sort_rangeINS1_15vector_iteratorINS1_17concurrent_vectorIPN4mold3elf12InputSectionINS7_5ALPHAEEENS1_23cache_aligned_allocatorISB_EEEESB_EEZNS7_L18print_icf_sectionsIS9_EEvRNS7_7ContextIT_EEEUlSB_SB_E_EENS1_15quick_sort_bodyISF_SL_EEKNS1_16auto_partitionerEE6cancelERNS1_14execution_dataE(ptr noundef nonnull align 64 dereferenceable(144) %this, ptr noundef nonnull align 8 dereferenceable(12) %ed) unnamed_addr #4 align 2 {
entry:
  %this.addr = alloca ptr, align 8
  %ed.addr = alloca ptr, align 8
  store ptr %this, ptr %this.addr, align 8
  store ptr %ed, ptr %ed.addr, align 8
  %this1 = load ptr, ptr %this.addr, align 8
  %0 = load ptr, ptr %ed.addr, align 8
  call void @_ZN3tbb6detail2d19start_forINS1_16quick_sort_rangeINS1_15vector_iteratorINS1_17concurrent_vectorIPN4mold3elf12InputSectionINS7_5ALPHAEEENS1_23cache_aligned_allocatorISB_EEEESB_EEZNS7_L18print_icf_sectionsIS9_EEvRNS7_7ContextIT_EEEUlSB_SB_E_EENS1_15quick_sort_bodyISF_SL_EEKNS1_16auto_partitionerEE8finalizeERKNS1_14execution_dataE(ptr noundef nonnull align 64 dereferenceable(144) %this1, ptr noundef nonnull align 8 dereferenceable(12) %0)
  ret ptr null
}